(dp0
S'cancer_doids'
p1
c__builtin__
set
p2
((lp3
VDOID:3069
p4
aVDOID:0080165
p5
aVDOID:0080164
p6
aVDOID:0080167
p7
aVDOID:0080166
p8
aVDOID:7356
p9
aVDOID:3121
p10
aVDOID:5672
p11
aVDOID:5675
p12
aVDOID:14059
p13
aVDOID:7061
p14
aVDOID:3234
p15
aVDOID:8096
p16
aVDOID:8097
p17
aVDOID:5274
p18
aVDOID:7713
p19
aVDOID:7244
p20
aVDOID:7717
p21
aVDOID:7246
p22
aVDOID:7718
p23
aVDOID:3963
p24
aVDOID:3962
p25
aVDOID:3617
p26
aVDOID:5597
p27
aVDOID:0060116
p28
aVDOID:7398
p29
aVDOID:7390
p30
aVDOID:0060119
p31
aVDOID:8543
p32
aVDOID:8541
p33
aVDOID:7664
p34
aVDOID:7665
p35
aVDOID:6606
p36
aVDOID:6823
p37
aVDOID:6530
p38
aVDOID:3618
p39
aVDOID:6827
p40
aVDOID:6536
p41
aVDOID:6286
p42
aVDOID:7806
p43
aVDOID:7807
p44
aVDOID:7808
p45
aVDOID:7482
p46
aVDOID:7483
p47
aVDOID:7480
p48
aVDOID:0060061
p49
aVDOID:6629
p50
aVDOID:6627
p51
aVDOID:10290
p52
aVDOID:6755
p53
aVDOID:6752
p54
aVDOID:6759
p55
aVDOID:6758
p56
aVDOID:7933
p57
aVDOID:7930
p58
aVDOID:7936
p59
aVDOID:3071
p60
aVDOID:5637
p61
aVDOID:5636
p62
aVDOID:5635
p63
aVDOID:5634
p64
aVDOID:5632
p65
aVDOID:5631
p66
aVDOID:5630
p67
aVDOID:3070
p68
aVDOID:5639
p69
aVDOID:5638
p70
aVDOID:7910
p71
aVDOID:5890
p72
aVDOID:6857
p73
aVDOID:11819
p74
aVDOID:5258
p75
aVDOID:5709
p76
aVDOID:4651
p77
aVDOID:4656
p78
aVDOID:5251
p79
aVDOID:5702
p80
aVDOID:11813
p81
aVDOID:11812
p82
aVDOID:5254
p83
aVDOID:5705
p84
aVDOID:5704
p85
aVDOID:10149
p86
aVDOID:12972
p87
aVDOID:0050616
p88
aVDOID:0050617
p89
aVDOID:0050615
p90
aVDOID:4894
p91
aVDOID:4896
p92
aVDOID:4897
p93
aVDOID:4205
p94
aVDOID:4892
p95
aVDOID:4893
p96
aVDOID:4472
p97
aVDOID:4473
p98
aVDOID:4471
p99
aVDOID:3716
p100
aVDOID:3717
p101
aVDOID:0050870
p102
aVDOID:3713
p103
aVDOID:3710
p104
aVDOID:3711
p105
aVDOID:1974
p106
aVDOID:5414
p107
aVDOID:1970
p108
aVDOID:5411
p109
aVDOID:5410
p110
aVDOID:3857
p111
aVDOID:3959
p112
aVDOID:3950
p113
aVDOID:3953
p114
aVDOID:12286
p115
aVDOID:3856
p116
aVDOID:4278
p117
aVDOID:4279
p118
aVDOID:0080372
p119
aVDOID:4277
p120
aVDOID:2531
p121
aVDOID:0080375
p122
aVDOID:3002
p123
aVDOID:10619
p124
aVDOID:3001
p125
aVDOID:3007
p126
aVDOID:3004
p127
aVDOID:11746
p128
aVDOID:4073
p129
aVDOID:3008
p130
aVDOID:3079
p131
aVDOID:4074
p132
aVDOID:4075
p133
aVDOID:4388
p134
aVDOID:4389
p135
aVDOID:0050903
p136
aVDOID:3078
p137
aVDOID:4384
p138
aVDOID:4385
p139
aVDOID:4386
p140
aVDOID:0080190
p141
aVDOID:0080192
p142
aVDOID:11472
p143
aVDOID:0080199
p144
aVDOID:2441
p145
aVDOID:8392
p146
aVDOID:0070326
p147
aVDOID:0070327
p148
aVDOID:0070322
p149
aVDOID:0070323
p150
aVDOID:2997
p151
aVDOID:2996
p152
aVDOID:2994
p153
aVDOID:0070328
p154
aVDOID:2992
p155
aVDOID:8151
p156
aVDOID:8150
p157
aVDOID:8400
p158
aVDOID:8409
p159
aVDOID:6103
p160
aVDOID:2667
p161
aVDOID:2660
p162
aVDOID:2669
p163
aVDOID:2668
p164
aVDOID:0060534
p165
aVDOID:2021
p166
aVDOID:7234
p167
aVDOID:7237
p168
aVDOID:7236
p169
aVDOID:7231
p170
aVDOID:7230
p171
aVDOID:7233
p172
aVDOID:7232
p173
aVDOID:7729
p174
aVDOID:0060100
p175
aVDOID:0060103
p176
aVDOID:0060102
p177
aVDOID:0060104
p178
aVDOID:0060106
p179
aVDOID:0060108
p180
aVDOID:7651
p181
aVDOID:7650
p182
aVDOID:7656
p183
aVDOID:6522
p184
aVDOID:6523
p185
aVDOID:11811
p186
aVDOID:6524
p187
aVDOID:6525
p188
aVDOID:7340
p189
aVDOID:1649
p190
aVDOID:7716
p191
aVDOID:136
p192
aVDOID:134
p193
aVDOID:0060079
p194
aVDOID:0060078
p195
aVDOID:12603
p196
aVDOID:0060075
p197
aVDOID:0060077
p198
aVDOID:0060076
p199
aVDOID:0080534
p200
aVDOID:0060073
p201
aVDOID:10283
p202
aVDOID:10287
p203
aVDOID:10286
p204
aVDOID:6639
p205
aVDOID:6634
p206
aVDOID:1360
p207
aVDOID:1363
p208
aVDOID:1362
p209
aVDOID:6742
p210
aVDOID:6740
p211
aVDOID:6741
p212
aVDOID:0080531
p213
aVDOID:7907
p214
aVDOID:7903
p215
aVDOID:7902
p216
aVDOID:1760
p217
aVDOID:314
p218
aVDOID:5718
p219
aVDOID:5719
p220
aVDOID:5714
p221
aVDOID:2401
p222
aVDOID:5240
p223
aVDOID:11820
p224
aVDOID:11821
p225
aVDOID:5712
p226
aVDOID:5713
p227
aVDOID:5026
p228
aVDOID:0050608
p229
aVDOID:5396
p230
aVDOID:9541
p231
aVDOID:4860
p232
aVDOID:4863
p233
aVDOID:4717
p234
aVDOID:9544
p235
aVDOID:4867
p236
aVDOID:4866
p237
aVDOID:4869
p238
aVDOID:0080323
p239
aVDOID:4719
p240
aVDOID:5623
p241
aVDOID:5624
p242
aVDOID:5625
p243
aVDOID:5626
p244
aVDOID:5627
p245
aVDOID:0050865
p246
aVDOID:3722
p247
aVDOID:3721
p248
aVDOID:0050866
p249
aVDOID:0050861
p250
aVDOID:5259
p251
aVDOID:1988
p252
aVDOID:3924
p253
aVDOID:11839
p254
aVDOID:4281
p255
aVDOID:4280
p256
aVDOID:4283
p257
aVDOID:4282
p258
aVDOID:4284
p259
aVDOID:4287
p260
aVDOID:4286
p261
aVDOID:2526
p262
aVDOID:4288
p263
aVDOID:0080367
p264
aVDOID:0080364
p265
aVDOID:3033
p266
aVDOID:4049
p267
aVDOID:3030
p268
aVDOID:4047
p269
aVDOID:4045
p270
aVDOID:4043
p271
aVDOID:3039
p272
aVDOID:3038
p273
aVDOID:4919
p274
aVDOID:4918
p275
aVDOID:4910
p276
aVDOID:4441
p277
aVDOID:4440
p278
aVDOID:4915
p279
aVDOID:4914
p280
aVDOID:4917
p281
aVDOID:4916
p282
aVDOID:0080187
p283
aVDOID:0080186
p284
aVDOID:0080185
p285
aVDOID:0080184
p286
aVDOID:0080183
p287
aVDOID:0080182
p288
aVDOID:0080189
p289
aVDOID:0080188
p290
aVDOID:3459
p291
aVDOID:3458
p292
aVDOID:0080211
p293
aVDOID:0080210
p294
aVDOID:3451
p295
aVDOID:3450
p296
aVDOID:8389
p297
aVDOID:3457
p298
aVDOID:8415
p299
aVDOID:8140
p300
aVDOID:8144
p301
aVDOID:8149
p302
aVDOID:8418
p303
aVDOID:6113
p304
aVDOID:9036
p305
aVDOID:2671
p306
aVDOID:2762
p307
aVDOID:2678
p308
aVDOID:7008
p309
aVDOID:3216
p310
aVDOID:8702
p311
aVDOID:7005
p312
aVDOID:7224
p313
aVDOID:7222
p314
aVDOID:7221
p315
aVDOID:8969
p316
aVDOID:6110
p317
aVDOID:10366
p318
aVDOID:10368
p319
aVDOID:2076
p320
aVDOID:2071
p321
aVDOID:2072
p322
aVDOID:8564
p323
aVDOID:8567
p324
aVDOID:4870
p325
aVDOID:7132
p326
aVDOID:7133
p327
aVDOID:8368
p328
aVDOID:4871
p329
aVDOID:7136
p330
aVDOID:7642
p331
aVDOID:7643
p332
aVDOID:8362
p333
aVDOID:7139
p334
aVDOID:4877
p335
aVDOID:6517
p336
aVDOID:6514
p337
aVDOID:6512
p338
aVDOID:6511
p339
aVDOID:6510
p340
aVDOID:7824
p341
aVDOID:7826
p342
aVDOID:7827
p343
aVDOID:7820
p344
aVDOID:4868
p345
aVDOID:120
p346
aVDOID:9299
p347
aVDOID:6193
p348
aVDOID:6192
p349
aVDOID:6190
p350
aVDOID:6197
p351
aVDOID:5875
p352
aVDOID:6199
p353
aVDOID:2705
p354
aVDOID:6607
p355
aVDOID:6354
p356
aVDOID:6605
p357
aVDOID:7731
p358
aVDOID:7732
p359
aVDOID:7733
p360
aVDOID:6179
p361
aVDOID:6171
p362
aVDOID:6170
p363
aVDOID:5893
p364
aVDOID:7646
p365
aVDOID:7912
p366
aVDOID:6998
p367
aVDOID:7915
p368
aVDOID:5894
p369
aVDOID:6993
p370
aVDOID:6992
p371
aVDOID:6997
p372
aVDOID:6996
p373
aVDOID:5579
p374
aVDOID:0060060
p375
aVDOID:6231
p376
aVDOID:5099
p377
aVDOID:5093
p378
aVDOID:5090
p379
aVDOID:3264
p380
aVDOID:1519
p381
aVDOID:9954
p382
aVDOID:9952
p383
aVDOID:9953
p384
aVDOID:6548
p385
aVDOID:305
p386
aVDOID:6777
p387
aVDOID:6776
p388
aVDOID:6774
p389
aVDOID:5276
p390
aVDOID:5275
p391
aVDOID:11838
p392
aVDOID:5273
p393
aVDOID:5272
p394
aVDOID:5271
p395
aVDOID:5772
p396
aVDOID:1192
p397
aVDOID:0050387
p398
aVDOID:0050671
p399
aVDOID:5777
p400
aVDOID:4872
p401
aVDOID:9550
p402
aVDOID:9551
p403
aVDOID:4876
p404
aVDOID:5658
p405
aVDOID:4875
p406
aVDOID:4878
p407
aVDOID:4879
p408
aVDOID:4708
p409
aVDOID:5874
p410
aVDOID:5877
p411
aVDOID:3737
p412
aVDOID:833
p413
aVDOID:1992
p414
aVDOID:1993
p415
aVDOID:1996
p416
aVDOID:1995
p417
aVDOID:1523
p418
aVDOID:4678
p419
aVDOID:4679
p420
aVDOID:9773
p421
aVDOID:3939
p422
aVDOID:4292
p423
aVDOID:3029
p424
aVDOID:4290
p425
aVDOID:4291
p426
aVDOID:3842
p427
aVDOID:0050929
p428
aVDOID:4294
p429
aVDOID:4295
p430
aVDOID:0050924
p431
aVDOID:0050925
p432
aVDOID:0050926
p433
aVDOID:4299
p434
aVDOID:3024
p435
aVDOID:0050921
p436
aVDOID:0050922
p437
aVDOID:0050923
p438
aVDOID:4050
p439
aVDOID:4051
p440
aVDOID:4053
p441
aVDOID:4054
p442
aVDOID:4055
p443
aVDOID:4057
p444
aVDOID:4058
p445
aVDOID:4059
p446
aVDOID:5503
p447
aVDOID:4908
p448
aVDOID:5591
p449
aVDOID:4902
p450
aVDOID:4455
p451
aVDOID:4901
p452
aVDOID:4450
p453
aVDOID:4907
p454
aVDOID:4905
p455
aVDOID:3448
p456
aVDOID:3449
p457
aVDOID:3119
p458
aVDOID:3114
p459
aVDOID:3443
p460
aVDOID:3446
p461
aVDOID:3447
p462
aVDOID:3112
p463
aVDOID:3113
p464
aVDOID:8177
p465
aVDOID:8179
p466
aVDOID:8178
p467
aVDOID:3590
p468
aVDOID:3593
p469
aVDOID:3594
p470
aVDOID:3596
p471
aVDOID:2513
p472
aVDOID:2649
p473
aVDOID:4293
p474
aVDOID:2643
p475
aVDOID:2641
p476
aVDOID:2640
p477
aVDOID:2647
p478
aVDOID:3181
p479
aVDOID:0080355
p480
aVDOID:8288
p481
aVDOID:0050928
p482
aVDOID:8282
p483
aVDOID:3200
p484
aVDOID:7032
p485
aVDOID:7031
p486
aVDOID:7037
p487
aVDOID:7039
p488
aVDOID:10011
p489
aVDOID:7583
p490
aVDOID:0050920
p491
aVDOID:7587
p492
aVDOID:7586
p493
aVDOID:7585
p494
aVDOID:7584
p495
aVDOID:7281
p496
aVDOID:5509
p497
aVDOID:8593
p498
aVDOID:5508
p499
aVDOID:8601
p500
aVDOID:8602
p501
aVDOID:7103
p502
aVDOID:8358
p503
aVDOID:8353
p504
aVDOID:8352
p505
aVDOID:7363
p506
aVDOID:7360
p507
aVDOID:7698
p508
aVDOID:154
p509
aVDOID:7696
p510
aVDOID:7694
p511
aVDOID:7514
p512
aVDOID:7040
p513
aVDOID:6344
p514
aVDOID:6345
p515
aVDOID:7213
p516
aVDOID:7212
p517
aVDOID:7747
p518
aVDOID:7210
p519
aVDOID:13972
p520
aVDOID:7214
p521
aVDOID:6162
p522
aVDOID:6163
p523
aVDOID:6160
p524
aVDOID:6161
p525
aVDOID:6166
p526
aVDOID:6167
p527
aVDOID:7967
p528
aVDOID:7961
p529
aVDOID:7960
p530
aVDOID:7969
p531
aVDOID:7968
p532
aVDOID:1749
p533
aVDOID:1748
p534
aVDOID:14384
p535
aVDOID:6500
p536
aVDOID:6501
p537
aVDOID:5088
p538
aVDOID:10020
p539
aVDOID:2621
p540
aVDOID:368
p541
aVDOID:14110
p542
aVDOID:371
p543
aVDOID:14491
p544
aVDOID:6760
p545
aVDOID:6762
p546
aVDOID:5260
p547
aVDOID:5261
p548
aVDOID:5262
p549
aVDOID:5263
p550
aVDOID:5264
p551
aVDOID:5265
p552
aVDOID:5267
p553
aVDOID:5268
p554
aVDOID:4454
p555
aVDOID:4903
p556
aVDOID:13159
p557
aVDOID:4906
p558
aVDOID:4451
p559
aVDOID:4847
p560
aVDOID:4846
p561
aVDOID:4845
p562
aVDOID:5648
p563
aVDOID:4840
p564
aVDOID:5862
p565
aVDOID:201
p566
aVDOID:1521
p567
aVDOID:1520
p568
aVDOID:5866
p569
aVDOID:5867
p570
aVDOID:4848
p571
aVDOID:0050803
p572
aVDOID:4113
p573
aVDOID:4112
p574
aVDOID:4115
p575
aVDOID:0050806
p576
aVDOID:0050805
p577
aVDOID:0050804
p578
aVDOID:3700
p579
aVDOID:5467
p580
aVDOID:5048
p581
aVDOID:4594
p582
aVDOID:4591
p583
aVDOID:4593
p584
aVDOID:3639
p585
aVDOID:3907
p586
aVDOID:3905
p587
aVDOID:3904
p588
aVDOID:4607
p589
aVDOID:3908
p590
aVDOID:9987
p591
aVDOID:9986
p592
aVDOID:0080347
p593
aVDOID:0050938
p594
aVDOID:0050937
p595
aVDOID:0050936
p596
aVDOID:0050935
p597
aVDOID:0050934
p598
aVDOID:0050933
p599
aVDOID:0050932
p600
aVDOID:0050931
p601
aVDOID:0050930
p602
aVDOID:4024
p603
aVDOID:5518
p604
aVDOID:5519
p605
aVDOID:4023
p606
aVDOID:3693
p607
aVDOID:3692
p608
aVDOID:3691
p609
aVDOID:5511
p610
aVDOID:5516
p611
aVDOID:5517
p612
aVDOID:5514
p613
aVDOID:5515
p614
aVDOID:4939
p615
aVDOID:4938
p616
aVDOID:9188
p617
aVDOID:4934
p618
aVDOID:4933
p619
aVDOID:4932
p620
aVDOID:4931
p621
aVDOID:4930
p622
aVDOID:5310
p623
aVDOID:11818
p624
aVDOID:4650
p625
aVDOID:5313
p626
aVDOID:3479
p627
aVDOID:3478
p628
aVDOID:8161
p629
aVDOID:4334
p630
aVDOID:8167
p631
aVDOID:3110
p632
aVDOID:3111
p633
aVDOID:5703
p634
aVDOID:2876
p635
aVDOID:2877
p636
aVDOID:2870
p637
aVDOID:3444
p638
aVDOID:3873
p639
aVDOID:3445
p640
aVDOID:5253
p641
aVDOID:4659
p642
aVDOID:2658
p643
aVDOID:11814
p644
aVDOID:7600
p645
aVDOID:11817
p646
aVDOID:2892
p647
aVDOID:2893
p648
aVDOID:0070003
p649
aVDOID:0070004
p650
aVDOID:7024
p651
aVDOID:3277
p652
aVDOID:3279
p653
aVDOID:3278
p654
aVDOID:8761
p655
aVDOID:7598
p656
aVDOID:7599
p657
aVDOID:7596
p658
aVDOID:7591
p659
aVDOID:2093
p660
aVDOID:2096
p661
aVDOID:2097
p662
aVDOID:2095
p663
aVDOID:2098
p664
aVDOID:3308
p665
aVDOID:10146
p666
aVDOID:8584
p667
aVDOID:3303
p668
aVDOID:3302
p669
aVDOID:3305
p670
aVDOID:3304
p671
aVDOID:3307
p672
aVDOID:3306
p673
aVDOID:8340
p674
aVDOID:8618
p675
aVDOID:3025
p676
aVDOID:7371
p677
aVDOID:8838
p678
aVDOID:7379
p679
aVDOID:7684
p680
aVDOID:7685
p681
aVDOID:7689
p682
aVDOID:6370
p683
aVDOID:7756
p684
aVDOID:7757
p685
aVDOID:7206
p686
aVDOID:7207
p687
aVDOID:5057
p688
aVDOID:7202
p689
aVDOID:6405
p690
aVDOID:6407
p691
aVDOID:6547
p692
aVDOID:6408
p693
aVDOID:7972
p694
aVDOID:7971
p695
aVDOID:6089
p696
aVDOID:1751
p697
aVDOID:1752
p698
aVDOID:6085
p699
aVDOID:6084
p700
aVDOID:6086
p701
aVDOID:2999
p702
aVDOID:9235
p703
aVDOID:6083
p704
aVDOID:6082
p705
aVDOID:10812
p706
aVDOID:10813
p707
aVDOID:10811
p708
aVDOID:6579
p709
aVDOID:6575
p710
aVDOID:6576
p711
aVDOID:6571
p712
aVDOID:5074
p713
aVDOID:5076
p714
aVDOID:8394
p715
aVDOID:0050618
p716
aVDOID:5983
p717
aVDOID:5982
p718
aVDOID:6886
p719
aVDOID:6880
p720
aVDOID:6888
p721
aVDOID:14489
p722
aVDOID:366
p723
aVDOID:3368
p724
aVDOID:363
p725
aVDOID:1355
p726
aVDOID:369
p727
aVDOID:1357
p728
aVDOID:13389
p729
aVDOID:5183
p730
aVDOID:5182
p731
aVDOID:5189
p732
aVDOID:4858
p733
aVDOID:4851
p734
aVDOID:4852
p735
aVDOID:4853
p736
aVDOID:4855
p737
aVDOID:4856
p738
aVDOID:0050872
p739
aVDOID:219
p740
aVDOID:218
p741
aVDOID:5677
p742
aVDOID:5859
p743
aVDOID:0050873
p744
aVDOID:10540
p745
aVDOID:10541
p746
aVDOID:10544
p747
aVDOID:10547
p748
aVDOID:10548
p749
aVDOID:8042
p750
aVDOID:5324
p751
aVDOID:5699
p752
aVDOID:5698
p753
aVDOID:5690
p754
aVDOID:5693
p755
aVDOID:5692
p756
aVDOID:5695
p757
aVDOID:5694
p758
aVDOID:5697
p759
aVDOID:5696
p760
aVDOID:4588
p761
aVDOID:4586
p762
aVDOID:4584
p763
aVDOID:3910
p764
aVDOID:4618
p765
aVDOID:3919
p766
aVDOID:0050908
p767
aVDOID:0050909
p768
aVDOID:0050902
p769
aVDOID:7506
p770
aVDOID:0050900
p771
aVDOID:0050901
p772
aVDOID:0050907
p773
aVDOID:0050904
p774
aVDOID:0050905
p775
aVDOID:5529
p776
aVDOID:5528
p777
aVDOID:5527
p778
aVDOID:5526
p779
aVDOID:5525
p780
aVDOID:5524
p781
aVDOID:5522
p782
aVDOID:5521
p783
aVDOID:5520
p784
aVDOID:1788
p785
aVDOID:4920
p786
aVDOID:4921
p787
aVDOID:4922
p788
aVDOID:4923
p789
aVDOID:0080532
p790
aVDOID:4926
p791
aVDOID:4927
p792
aVDOID:4928
p793
aVDOID:4929
p794
aVDOID:1973
p795
aVDOID:961
p796
aVDOID:962
p797
aVDOID:8119
p798
aVDOID:8118
p799
aVDOID:4320
p800
aVDOID:8110
p801
aVDOID:3868
p802
aVDOID:3869
p803
aVDOID:3864
p804
aVDOID:3865
p805
aVDOID:3860
p806
aVDOID:3861
p807
aVDOID:8023
p808
aVDOID:8022
p809
aVDOID:8025
p810
aVDOID:3260
p811
aVDOID:8029
p812
aVDOID:0111147
p813
aVDOID:7198
p814
aVDOID:7565
p815
aVDOID:7567
p816
aVDOID:7566
p817
aVDOID:10153
p818
aVDOID:10152
p819
aVDOID:10151
p820
aVDOID:10155
p821
aVDOID:10154
p822
aVDOID:14139
p823
aVDOID:2224
p824
aVDOID:2226
p825
aVDOID:7169
p826
aVDOID:7168
p827
aVDOID:3316
p828
aVDOID:8336
p829
aVDOID:8339
p830
aVDOID:8338
p831
aVDOID:8628
p832
aVDOID:7305
p833
aVDOID:7302
p834
aVDOID:3644
p835
aVDOID:170
p836
aVDOID:171
p837
aVDOID:176
p838
aVDOID:175
p839
aVDOID:7750
p840
aVDOID:14535
p841
aVDOID:774
p842
aVDOID:775
p843
aVDOID:2133
p844
aVDOID:2132
p845
aVDOID:2135
p846
aVDOID:6367
p847
aVDOID:7763
p848
aVDOID:7764
p849
aVDOID:8243
p850
aVDOID:8930
p851
aVDOID:8937
p852
aVDOID:7949
p853
aVDOID:0080374
p854
aVDOID:7941
p855
aVDOID:7945
p856
aVDOID:7788
p857
aVDOID:6961
p858
aVDOID:192
p859
aVDOID:7787
p860
aVDOID:6789
p861
aVDOID:6098
p862
aVDOID:6090
p863
aVDOID:684
p864
aVDOID:686
p865
aVDOID:687
p866
aVDOID:6569
p867
aVDOID:6566
p868
aVDOID:6567
p869
aVDOID:688
p870
aVDOID:5063
p871
aVDOID:1035
p872
aVDOID:11747
p873
aVDOID:1037
p874
aVDOID:1036
p875
aVDOID:1039
p876
aVDOID:1785
p877
aVDOID:1781
p878
aVDOID:11748
p879
aVDOID:4289
p880
aVDOID:5990
p881
aVDOID:6898
p882
aVDOID:355
p883
aVDOID:6786
p884
aVDOID:6787
p885
aVDOID:1325
p886
aVDOID:1324
p887
aVDOID:6788
p888
aVDOID:193
p889
aVDOID:5207
p890
aVDOID:5208
p891
aVDOID:5209
p892
aVDOID:5194
p893
aVDOID:5195
p894
aVDOID:5193
p895
aVDOID:5190
p896
aVDOID:5191
p897
aVDOID:4829
p898
aVDOID:5665
p899
aVDOID:5842
p900
aVDOID:5667
p901
aVDOID:5660
p902
aVDOID:5662
p903
aVDOID:4136
p904
aVDOID:5331
p905
aVDOID:5680
p906
aVDOID:5681
p907
aVDOID:11868
p908
aVDOID:3073
p909
aVDOID:0050917
p910
aVDOID:0050916
p911
aVDOID:0050911
p912
aVDOID:3076
p913
aVDOID:0050913
p914
aVDOID:3074
p915
aVDOID:4003
p916
aVDOID:4553
p917
aVDOID:4552
p918
aVDOID:4555
p919
aVDOID:4554
p920
aVDOID:4005
p921
aVDOID:4556
p922
aVDOID:5530
p923
aVDOID:5531
p924
aVDOID:5532
p925
aVDOID:5533
p926
aVDOID:3675
p927
aVDOID:3674
p928
aVDOID:5536
p929
aVDOID:5537
p930
aVDOID:5538
p931
aVDOID:5539
p932
aVDOID:0080521
p933
aVDOID:4486
p934
aVDOID:4957
p935
aVDOID:0080522
p936
aVDOID:0080525
p937
aVDOID:0080524
p938
aVDOID:5297
p939
aVDOID:12342
p940
aVDOID:4488
p941
aVDOID:5296
p942
aVDOID:7697
p943
aVDOID:3417
p944
aVDOID:8106
p945
aVDOID:3419
p946
aVDOID:3259
p947
aVDOID:3258
p948
aVDOID:3253
p949
aVDOID:3520
p950
aVDOID:14032
p951
aVDOID:3250
p952
aVDOID:3255
p953
aVDOID:3254
p954
aVDOID:3098
p955
aVDOID:10021
p956
aVDOID:8747
p957
aVDOID:8036
p958
aVDOID:512
p959
aVDOID:0070325
p960
aVDOID:3093
p961
aVDOID:3095
p962
aVDOID:2784
p963
aVDOID:2782
p964
aVDOID:2781
p965
aVDOID:7571
p966
aVDOID:7577
p967
aVDOID:7574
p968
aVDOID:3973
p969
aVDOID:12969
p970
aVDOID:7578
p971
aVDOID:2998
p972
aVDOID:4706
p973
aVDOID:4203
p974
aVDOID:8013
p975
aVDOID:8630
p976
aVDOID:7177
p977
aVDOID:7174
p978
aVDOID:7175
p979
aVDOID:7173
p980
aVDOID:60003
p981
aVDOID:4653
p982
aVDOID:4707
p983
aVDOID:4207
p984
aVDOID:4206
p985
aVDOID:7315
p986
aS'DOID:162'
p987
aVDOID:169
p988
aVDOID:7211
p989
aVDOID:2129
p990
aVDOID:6315
p991
aVDOID:6314
p992
aVDOID:769
p993
aVDOID:6316
p994
aVDOID:2127
p995
aVDOID:6313
p996
aVDOID:6312
p997
aVDOID:8259
p998
aVDOID:0070324
p999
aVDOID:8251
p1000
aVDOID:8256
p1001
aVDOID:8923
p1002
aVDOID:6425
p1003
aVDOID:7409
p1004
aVDOID:6423
p1005
aVDOID:7959
p1006
aVDOID:7401
p1007
aVDOID:6139
p1008
aVDOID:7951
p1009
aVDOID:6428
p1010
aVDOID:6951
p1011
aVDOID:11054
p1012
aVDOID:6959
p1013
aVDOID:6958
p1014
aVDOID:12984
p1015
aVDOID:6553
p1016
aVDOID:6552
p1017
aVDOID:6554
p1018
aVDOID:6229
p1019
aVDOID:6228
p1020
aVDOID:1790
p1021
aVDOID:1791
p1022
aVDOID:1792
p1023
aVDOID:1793
p1024
aVDOID:1795
p1025
aVDOID:1796
p1026
aVDOID:5050
p1027
aVDOID:6041
p1028
aVDOID:1799
p1029
aVDOID:6043
p1030
aVDOID:5059
p1031
aVDOID:5058
p1032
aVDOID:6865
p1033
aVDOID:6988
p1034
aVDOID:184
p1035
aVDOID:13169
p1036
aVDOID:13168
p1037
aVDOID:1243
p1038
aVDOID:1240
p1039
aVDOID:13160
p1040
aVDOID:4838
p1041
aVDOID:4839
p1042
aVDOID:9513
p1043
aVDOID:4830
p1044
aVDOID:5834
p1045
aVDOID:5831
p1046
aVDOID:5830
p1047
aVDOID:5838
p1048
aVDOID:5309
p1049
aVDOID:5308
p1050
aVDOID:5307
p1051
aVDOID:5306
p1052
aVDOID:4111
p1053
aVDOID:5304
p1054
aVDOID:5303
p1055
aVDOID:5302
p1056
aVDOID:5301
p1057
aVDOID:0050695
p1058
aVDOID:0050748
p1059
aVDOID:0050749
p1060
aVDOID:0050743
p1061
aVDOID:0050744
p1062
aVDOID:0050745
p1063
aVDOID:0050746
p1064
aVDOID:0050747
p1065
aVDOID:5233
p1066
aVDOID:5940
p1067
aVDOID:5236
p1068
aVDOID:4548
p1069
aVDOID:4549
p1070
aVDOID:4014
p1071
aVDOID:4015
p1072
aVDOID:4546
p1073
aVDOID:4011
p1074
aVDOID:4012
p1075
aVDOID:4013
p1076
aVDOID:5547
p1077
aVDOID:5546
p1078
aVDOID:3666
p1079
aVDOID:5540
p1080
aVDOID:3664
p1081
aVDOID:1800
p1082
aVDOID:12190
p1083
aVDOID:12192
p1084
aVDOID:4490
p1085
aVDOID:13348
p1086
aVDOID:4947
p1087
aVDOID:4944
p1088
aVDOID:4001
p1089
aVDOID:4948
p1090
aVDOID:4000
p1091
aVDOID:4007
p1092
aVDOID:11615
p1093
aVDOID:4006
p1094
aVDOID:4300
p1095
aVDOID:4301
p1096
aVDOID:4302
p1097
aVDOID:8130
p1098
aVDOID:8137
p1099
aVDOID:4305
p1100
aVDOID:8135
p1101
aVDOID:8138
p1102
aVDOID:3672
p1103
aVDOID:5534
p1104
aVDOID:5535
p1105
aVDOID:2687
p1106
aVDOID:2685
p1107
aVDOID:5166
p1108
aVDOID:2689
p1109
aVDOID:3246
p1110
aVDOID:3247
p1111
aVDOID:2338
p1112
aVDOID:8007
p1113
aVDOID:10054
p1114
aVDOID:502
p1115
aVDOID:8000
p1116
aVDOID:8009
p1117
aVDOID:7095
p1118
aVDOID:7097
p1119
aVDOID:7542
p1120
aVDOID:7541
p1121
aVDOID:7142
p1122
aVDOID:7141
p1123
aVDOID:7140
p1124
aVDOID:8649
p1125
aVDOID:7146
p1126
aVDOID:7144
p1127
aVDOID:436
p1128
aVDOID:6994
p1129
aVDOID:8642
p1130
aVDOID:8864
p1131
aVDOID:4955
p1132
aVDOID:9173
p1133
aVDOID:6126
p1134
aVDOID:7438
p1135
aVDOID:7437
p1136
aVDOID:7436
p1137
aVDOID:7435
p1138
aVDOID:6128
p1139
aVDOID:7430
p1140
aVDOID:0050458
p1141
aVDOID:12759
p1142
aVDOID:12756
p1143
aVDOID:5284
p1144
aVDOID:12341
p1145
aVDOID:6232
p1146
aVDOID:6230
p1147
aVDOID:7328
p1148
aVDOID:4489
p1149
aVDOID:7891
p1150
aVDOID:6052
p1151
aVDOID:6053
p1152
aVDOID:6438
p1153
aVDOID:1650
p1154
aVDOID:1659
p1155
aVDOID:5701
p1156
aVDOID:2101
p1157
aVDOID:8578
p1158
aVDOID:5700
p1159
aVDOID:5826
p1160
aVDOID:5825
p1161
aVDOID:5822
p1162
aVDOID:5823
p1163
aVDOID:5820
p1164
aVDOID:5821
p1165
aVDOID:5040
p1166
aVDOID:5041
p1167
aVDOID:5042
p1168
aVDOID:5828
p1169
aVDOID:5047
p1170
aVDOID:0050685
p1171
aVDOID:0050687
p1172
aVDOID:0050686
p1173
aVDOID:4791
p1174
aVDOID:4790
p1175
aVDOID:0050688
p1176
aVDOID:4794
p1177
aVDOID:0050751
p1178
aVDOID:0050750
p1179
aVDOID:5958
p1180
aVDOID:11889
p1181
aVDOID:5957
p1182
aVDOID:5556
p1183
aVDOID:5557
p1184
aVDOID:3372
p1185
aVDOID:5553
p1186
aVDOID:5550
p1187
aVDOID:5551
p1188
aVDOID:5559
p1189
aVDOID:4972
p1190
aVDOID:4971
p1191
aVDOID:4159
p1192
aVDOID:9300
p1193
aVDOID:4151
p1194
aVDOID:4153
p1195
aVDOID:4152
p1196
aVDOID:2430
p1197
aVDOID:2431
p1198
aVDOID:8122
p1199
aVDOID:1909
p1200
aVDOID:1901
p1201
aVDOID:1907
p1202
aVDOID:1906
p1203
aVDOID:5829
p1204
aVDOID:771
p1205
aVDOID:4209
p1206
aVDOID:13742
p1207
aVDOID:3507
p1208
aVDOID:60004
p1209
aVDOID:4202
p1210
aVDOID:3503
p1211
aVDOID:3502
p1212
aVDOID:3501
p1213
aVDOID:3500
p1214
aVDOID:10044
p1215
aVDOID:10047
p1216
aVDOID:10040
p1217
aVDOID:7086
p1218
aVDOID:7081
p1219
aVDOID:7088
p1220
aVDOID:7089
p1221
aVDOID:3347
p1222
aVDOID:7152
p1223
aVDOID:8304
p1224
aVDOID:8305
p1225
aVDOID:8654
p1226
aVDOID:8307
p1227
aVDOID:8302
p1228
aVDOID:8651
p1229
aVDOID:2696
p1230
aVDOID:5900
p1231
aVDOID:200
p1232
aVDOID:1522
p1233
aVDOID:133
p1234
aVDOID:6333
p1235
aVDOID:6332
p1236
aVDOID:6331
p1237
aVDOID:5861
p1238
aVDOID:6337
p1239
aVDOID:6335
p1240
aVDOID:6334
p1241
aVDOID:6339
p1242
aVDOID:8272
p1243
aVDOID:8275
p1244
aVDOID:7553
p1245
aVDOID:0060080
p1246
aVDOID:0060081
p1247
aVDOID:0060083
p1248
aVDOID:6939
p1249
aVDOID:6938
p1250
aVDOID:7428
p1251
aVDOID:7429
p1252
aVDOID:6931
p1253
aVDOID:5583
p1254
aVDOID:138
p1255
aVDOID:3252
p1256
aVDOID:5585
p1257
aVDOID:3843
p1258
aVDOID:3251
p1259
aVDOID:4114
p1260
aVDOID:14033
p1261
aVDOID:4117
p1262
aVDOID:3850
p1263
aVDOID:6201
p1264
aVDOID:6209
p1265
aVDOID:6208
p1266
aVDOID:6067
p1267
aVDOID:4008
p1268
aVDOID:8030
p1269
aVDOID:8031
p1270
aVDOID:6845
p1271
aVDOID:6844
p1272
aVDOID:6847
p1273
aVDOID:6846
p1274
aVDOID:6848
p1275
aVDOID:6595
p1276
aVDOID:6594
p1277
aVDOID:10289
p1278
aVDOID:1642
p1279
aVDOID:6448
p1280
aVDOID:6445
p1281
aVDOID:6112
p1282
aVDOID:6446
p1283
aVDOID:1319
p1284
aVDOID:6115
p1285
aVDOID:6114
p1286
aVDOID:5149
p1287
aVDOID:518
p1288
aVDOID:4812
p1289
aVDOID:4813
p1290
aVDOID:9538
p1291
aVDOID:5815
p1292
aVDOID:4698
p1293
aVDOID:5740
p1294
aVDOID:5031
p1295
aVDOID:5030
p1296
aVDOID:5032
p1297
aVDOID:5495
p1298
aVDOID:5494
p1299
aVDOID:4788
p1300
aVDOID:5492
p1301
aVDOID:5363
p1302
aVDOID:4787
p1303
aVDOID:5368
p1304
aVDOID:5784
p1305
aVDOID:5789
p1306
aVDOID:5569
p1307
aVDOID:5568
p1308
aVDOID:5563
p1309
aVDOID:3641
p1310
aVDOID:5561
p1311
aVDOID:3643
p1312
aVDOID:5567
p1313
aVDOID:5566
p1314
aVDOID:5565
p1315
aVDOID:5564
p1316
aVDOID:5761
p1317
aVDOID:5760
p1318
aVDOID:5764
p1319
aVDOID:12965
p1320
aVDOID:1866
p1321
aVDOID:1862
p1322
aVDOID:1863
p1323
aVDOID:7575
p1324
aVDOID:4960
p1325
aVDOID:12339
p1326
aVDOID:4143
p1327
aVDOID:4141
p1328
aVDOID:0060888
p1329
aVDOID:3421
p1330
aVDOID:4364
p1331
aVDOID:4362
p1332
aVDOID:4360
p1333
aVDOID:4606
p1334
aVDOID:1910
p1335
aVDOID:1911
p1336
aVDOID:0050940
p1337
aVDOID:2599
p1338
aVDOID:9119
p1339
aVDOID:8068
p1340
aVDOID:3516
p1341
aVDOID:3517
p1342
aVDOID:6948
p1343
aVDOID:4210
p1344
aVDOID:4211
p1345
aVDOID:4217
p1346
aVDOID:2595
p1347
aVDOID:0050939
p1348
aVDOID:1647
p1349
aVDOID:3198
p1350
aVDOID:3199
p1351
aVDOID:0060318
p1352
aVDOID:2776
p1353
aVDOID:2775
p1354
aVDOID:3356
p1355
aVDOID:3357
p1356
aVDOID:3354
p1357
aVDOID:3355
p1358
aVDOID:3352
p1359
aVDOID:3350
p1360
aVDOID:3351
p1361
aVDOID:3699
p1362
aVDOID:3698
p1363
aVDOID:8632
p1364
aVDOID:7631
p1365
aVDOID:8688
p1366
aVDOID:7632
p1367
aVDOID:7635
p1368
aVDOID:7634
p1369
aVDOID:7639
p1370
aVDOID:8683
p1371
aVDOID:8635
p1372
aVDOID:738
p1373
aVDOID:734
p1374
aVDOID:736
p1375
aVDOID:5510
p1376
aVDOID:8731
p1377
aVDOID:6322
p1378
aVDOID:8207
p1379
aVDOID:13799
p1380
aVDOID:8203
p1381
aVDOID:7521
p1382
aVDOID:7520
p1383
aVDOID:7522
p1384
aVDOID:7986
p1385
aVDOID:7983
p1386
aVDOID:6696
p1387
aVDOID:6697
p1388
aVDOID:7459
p1389
aVDOID:6693
p1390
aVDOID:0060761
p1391
aVDOID:11241
p1392
aVDOID:6210
p1393
aVDOID:6212
p1394
aVDOID:6214
p1395
aVDOID:6217
p1396
aVDOID:8849
p1397
aVDOID:8081
p1398
aVDOID:6581
p1399
aVDOID:6856
p1400
aVDOID:6585
p1401
aVDOID:6587
p1402
aVDOID:7851
p1403
aVDOID:6858
p1404
aVDOID:6458
p1405
aVDOID:6101
p1406
aVDOID:6451
p1407
aVDOID:5152
p1408
aVDOID:5153
p1409
aVDOID:5150
p1410
aVDOID:5151
p1411
aVDOID:1107
p1412
aVDOID:1106
p1413
aVDOID:1108
p1414
aVDOID:5158
p1415
aVDOID:268
p1416
aVDOID:5809
p1417
aVDOID:262
p1418
aVDOID:263
p1419
aVDOID:260
p1420
aVDOID:261
p1421
aVDOID:264
p1422
aVDOID:265
p1423
aVDOID:0060548
p1424
aVDOID:14544
p1425
aVDOID:14545
p1426
aVDOID:14546
p1427
aVDOID:14547
p1428
aVDOID:5022
p1429
aVDOID:0050619
p1430
aVDOID:5376
p1431
aVDOID:4773
p1432
aVDOID:4772
p1433
aVDOID:5373
p1434
aVDOID:5370
p1435
aVDOID:11934
p1436
aVDOID:13005
p1437
aVDOID:9254
p1438
aVDOID:9256
p1439
aVDOID:12239
p1440
aVDOID:9253
p1441
aVDOID:1293
p1442
aVDOID:5973
p1443
aVDOID:5974
p1444
aVDOID:1294
p1445
aVDOID:5798
p1446
aVDOID:4515
p1447
aVDOID:4514
p1448
aVDOID:4517
p1449
aVDOID:4511
p1450
aVDOID:4510
p1451
aVDOID:4513
p1452
aVDOID:4512
p1453
aVDOID:5574
p1454
aVDOID:3637
p1455
aVDOID:5577
p1456
aVDOID:5570
p1457
aVDOID:4685
p1458
aVDOID:4687
p1459
aVDOID:4686
p1460
aVDOID:4681
p1461
aVDOID:4680
p1462
aVDOID:4682
p1463
aVDOID:0050919
p1464
aVDOID:4688
p1465
aVDOID:4991
p1466
aVDOID:4230
p1467
aVDOID:4993
p1468
aVDOID:4992
p1469
aVDOID:4995
p1470
aVDOID:4994
p1471
aVDOID:3577
p1472
aVDOID:5488
p1473
aVDOID:0050918
p1474
aVDOID:5484
p1475
aVDOID:5485
p1476
aVDOID:5487
p1477
aVDOID:3183
p1478
aVDOID:4359
p1479
aVDOID:768
p1480
aVDOID:3187
p1481
aVDOID:3186
p1482
aVDOID:3185
p1483
aVDOID:3184
p1484
aVDOID:4352
p1485
aVDOID:4422
p1486
aVDOID:3741
p1487
aVDOID:3740
p1488
aVDOID:3743
p1489
aVDOID:3742
p1490
aVDOID:3744
p1491
aVDOID:3747
p1492
aVDOID:3749
p1493
aVDOID:3748
p1494
aVDOID:12016
p1495
aVDOID:5716
p1496
aVDOID:5711
p1497
aVDOID:3565
p1498
aVDOID:8078
p1499
aVDOID:4227
p1500
aVDOID:4226
p1501
aVDOID:8072
p1502
aVDOID:10661
p1503
aVDOID:10660
p1504
aVDOID:7408
p1505
aVDOID:3369
p1506
aVDOID:2763
p1507
aVDOID:2764
p1508
aVDOID:2766
p1509
aVDOID:7958
p1510
aVDOID:3361
p1511
aVDOID:3360
p1512
aVDOID:3367
p1513
aVDOID:14145
p1514
aVDOID:13499
p1515
aVDOID:3162
p1516
aVDOID:2871
p1517
aVDOID:7192
p1518
aVDOID:8692
p1519
aVDOID:8691
p1520
aVDOID:8696
p1521
aVDOID:7953
p1522
aVDOID:3870
p1523
aVDOID:8216
p1524
aVDOID:7537
p1525
aVDOID:7531
p1526
aVDOID:6917
p1527
aVDOID:5628
p1528
aVDOID:5629
p1529
aVDOID:6263
p1530
aVDOID:6262
p1531
aVDOID:8858
p1532
aVDOID:8850
p1533
aVDOID:4716
p1534
aVDOID:6004
p1535
aVDOID:6001
p1536
aVDOID:9547
p1537
aVDOID:6003
p1538
aVDOID:6867
p1539
aVDOID:7848
p1540
aVDOID:7849
p1541
aVDOID:5621
p1542
aVDOID:7843
p1543
aVDOID:7840
p1544
aVDOID:7841
p1545
aVDOID:6869
p1546
aVDOID:6868
p1547
aVDOID:0060338
p1548
aVDOID:1660
p1549
aVDOID:1664
p1550
aVDOID:7994
p1551
aVDOID:3723
p1552
aVDOID:5165
p1553
aVDOID:1114
p1554
aVDOID:1115
p1555
aVDOID:5169
p1556
aVDOID:6489
p1557
aVDOID:3720
p1558
aVDOID:6481
p1559
aVDOID:6483
p1560
aVDOID:6482
p1561
aVDOID:7491
p1562
aVDOID:270
p1563
aVDOID:14152
p1564
aVDOID:3640
p1565
aVDOID:5016
p1566
aVDOID:5015
p1567
aVDOID:14150
p1568
aVDOID:3275
p1569
aVDOID:5560
p1570
aVDOID:4766
p1571
aVDOID:4767
p1572
aVDOID:4765
p1573
aVDOID:11920
p1574
aVDOID:4768
p1575
aVDOID:4769
p1576
aVDOID:7488
p1577
aVDOID:5907
p1578
aVDOID:0050547
p1579
aVDOID:0060058
p1580
aVDOID:5908
p1581
aVDOID:5580
p1582
aVDOID:4504
p1583
aVDOID:4505
p1584
aVDOID:3998
p1585
aVDOID:3999
p1586
aVDOID:5056
p1587
aVDOID:5588
p1588
aVDOID:3996
p1589
aVDOID:3620
p1590
aVDOID:4696
p1591
aVDOID:4697
p1592
aVDOID:4693
p1593
aVDOID:4690
p1594
aVDOID:4691
p1595
aVDOID:5747
p1596
aVDOID:5746
p1597
aVDOID:5744
p1598
aVDOID:5743
p1599
aVDOID:5742
p1600
aVDOID:5741
p1601
aVDOID:4699
p1602
aVDOID:0050899
p1603
aVDOID:4985
p1604
aVDOID:0050892
p1605
aVDOID:0050896
p1606
aVDOID:0050897
p1607
aVDOID:4164
p1608
aVDOID:1798
p1609
aVDOID:5349
p1610
aVDOID:5348
p1611
aVDOID:4160
p1612
aVDOID:4163
p1613
aVDOID:5343
p1614
aVDOID:5342
p1615
aVDOID:5341
p1616
aVDOID:5345
p1617
aVDOID:5344
p1618
aVDOID:4438
p1619
aVDOID:4439
p1620
aVDOID:3193
p1621
aVDOID:4432
p1622
aVDOID:4433
p1623
aVDOID:4430
p1624
aVDOID:4436
p1625
aVDOID:4437
p1626
aVDOID:4435
p1627
aVDOID:3752
p1628
aVDOID:3750
p1629
aVDOID:3751
p1630
aVDOID:12003
p1631
aVDOID:12002
p1632
aVDOID:12001
p1633
aVDOID:3280
p1634
aVDOID:3281
p1635
aVDOID:3282
p1636
aVDOID:3283
p1637
aVDOID:3284
p1638
aVDOID:8043
p1639
aVDOID:4231
p1640
aVDOID:4232
p1641
aVDOID:4233
p1642
aVDOID:5409
p1643
aVDOID:4235
p1644
aVDOID:4236
p1645
aVDOID:3571
p1646
aVDOID:4239
p1647
aVDOID:3378
p1648
aVDOID:3379
p1649
aVDOID:3374
p1650
aVDOID:3376
p1651
aVDOID:3377
p1652
aVDOID:3371
p1653
aVDOID:14151
p1654
aVDOID:3373
p1655
aVDOID:9149
p1656
aVDOID:8195
p1657
aVDOID:8193
p1658
aVDOID:3587
p1659
aVDOID:7615
p1660
aVDOID:7614
p1661
aVDOID:7613
p1662
aVDOID:7612
p1663
aVDOID:0080369
p1664
aVDOID:712
p1665
aVDOID:713
p1666
aVDOID:710
p1667
aVDOID:711
p1668
aVDOID:715
p1669
aVDOID:2153
p1670
aVDOID:2152
p1671
aVDOID:2151
p1672
aVDOID:2150
p1673
aVDOID:2156
p1674
aVDOID:2155
p1675
aVDOID:2154
p1676
aVDOID:7293
p1677
aVDOID:7297
p1678
aVDOID:8223
p1679
aVDOID:8221
p1680
aVDOID:2394
p1681
aVDOID:7051
p1682
aVDOID:7050
p1683
aVDOID:7501
p1684
aVDOID:7054
p1685
aVDOID:6901
p1686
aVDOID:6903
p1687
aVDOID:6278
p1688
aVDOID:6276
p1689
aVDOID:6274
p1690
aVDOID:2024
p1691
aVDOID:6270
p1692
aVDOID:6271
p1693
aVDOID:8538
p1694
aVDOID:8533
p1695
aVDOID:8997
p1696
aVDOID:6016
p1697
aVDOID:6017
p1698
aVDOID:6015
p1699
aVDOID:6871
p1700
aVDOID:6872
p1701
aVDOID:4048
p1702
aVDOID:6018
p1703
aVDOID:6019
p1704
aVDOID:1245
p1705
aVDOID:7878
p1706
aVDOID:14125
p1707
aVDOID:7502
p1708
aVDOID:1614
p1709
aVDOID:1612
p1710
aVDOID:6474
p1711
aVDOID:6476
p1712
aVDOID:6477
p1713
aVDOID:7474
p1714
aVDOID:6703
p1715
aVDOID:6700
p1716
aVDOID:6706
p1717
aVDOID:6707
p1718
aVDOID:6705
p1719
aVDOID:6496
p1720
aVDOID:6494
p1721
aVDOID:6495
p1722
aVDOID:285
p1723
aVDOID:1725
p1724
aVDOID:0060219
p1725
aVDOID:4757
p1726
aVDOID:4756
p1727
aVDOID:1540
p1728
aVDOID:1542
p1729
aVDOID:12253
p1730
aVDOID:5178
p1731
aVDOID:5179
p1732
aVDOID:5914
p1733
aVDOID:5913
p1734
aVDOID:5170
p1735
aVDOID:5171
p1736
aVDOID:5176
p1737
aVDOID:5592
p1738
aVDOID:5593
p1739
aVDOID:5590
p1740
aVDOID:3610
p1741
aVDOID:3965
p1742
aVDOID:3964
p1743
aVDOID:5595
p1744
aVDOID:3969
p1745
aVDOID:3968
p1746
aVDOID:5598
p1747
aVDOID:5599
p1748
aVDOID:5750
p1749
aVDOID:5751
p1750
aVDOID:5752
p1751
aVDOID:4442
p1752
aVDOID:5758
p1753
aVDOID:5350
p1754
aVDOID:5351
p1755
aVDOID:5282
p1756
aVDOID:9125
p1757
aVDOID:4531
p1758
aVDOID:234
p1759
aVDOID:2816
p1760
aVDOID:2817
p1761
aVDOID:2814
p1762
aVDOID:2815
p1763
aVDOID:3542
p1764
aVDOID:3541
p1765
aVDOID:3540
p1766
aVDOID:3545
p1767
aVDOID:3544
p1768
aVDOID:8057
p1769
aVDOID:8050
p1770
aVDOID:8051
p1771
aVDOID:4242
p1772
aVDOID:8058
p1773
aVDOID:660
p1774
aVDOID:3512
p1775
aVDOID:2025
p1776
aVDOID:3381
p1777
aVDOID:2704
p1778
aVDOID:3382
p1779
aVDOID:0080147
p1780
aVDOID:0080146
p1781
aVDOID:0080145
p1782
aVDOID:0080144
p1783
aVDOID:910
p1784
aVDOID:0080149
p1785
aVDOID:0080148
p1786
aVDOID:3149
p1787
aVDOID:13476
p1788
aVDOID:2596
p1789
aVDOID:8186
p1790
aVDOID:8187
p1791
aVDOID:8188
p1792
aVDOID:707
p1793
aVDOID:706
p1794
aVDOID:2632
p1795
aVDOID:2145
p1796
aVDOID:2146
p1797
aVDOID:709
p1798
aVDOID:2143
p1799
aVDOID:7284
p1800
aVDOID:8239
p1801
aVDOID:7289
p1802
aVDOID:8233
p1803
aVDOID:7042
p1804
aVDOID:7515
p1805
aVDOID:7516
p1806
aVDOID:7041
p1807
aVDOID:7046
p1808
aVDOID:7047
p1809
aVDOID:7045
p1810
aVDOID:7048
p1811
aVDOID:7049
p1812
aVDOID:7519
p1813
aVDOID:7269
p1814
aVDOID:7266
p1815
aVDOID:7267
p1816
aVDOID:6648
p1817
aVDOID:11239
p1818
aVDOID:672
p1819
aVDOID:6249
p1820
aVDOID:8527
p1821
aVDOID:13691
p1822
aVDOID:7602
p1823
aVDOID:7603
p1824
aVDOID:6804
p1825
aVDOID:3504
p1826
aVDOID:7867
p1827
aVDOID:6975
p1828
aVDOID:7460
p1829
aVDOID:7461
p1830
aVDOID:7463
p1831
aVDOID:6976
p1832
aVDOID:293
p1833
aVDOID:292
p1834
aVDOID:297
p1835
aVDOID:296
p1836
aVDOID:295
p1837
aVDOID:294
p1838
aVDOID:299
p1839
aVDOID:298
p1840
aVDOID:0060592
p1841
aVDOID:14534
p1842
aVDOID:1040
p1843
aVDOID:0060597
p1844
aVDOID:6021
p1845
aVDOID:9597
p1846
aVDOID:5612
p1847
aVDOID:5615
p1848
aVDOID:11905
p1849
aVDOID:5299
p1850
aVDOID:9261
p1851
aVDOID:3202
p1852
aVDOID:5923
p1853
aVDOID:5922
p1854
aVDOID:5921
p1855
aVDOID:0050523
p1856
aVDOID:5926
p1857
aVDOID:5293
p1858
aVDOID:5292
p1859
aVDOID:1138
p1860
aVDOID:9460
p1861
aVDOID:5101
p1862
aVDOID:0060463
p1863
aVDOID:5102
p1864
aVDOID:3604
p1865
aVDOID:3605
p1866
aVDOID:3606
p1867
aVDOID:3607
p1868
aVDOID:3603
p1869
aVDOID:3608
p1870
aVDOID:3609
p1871
aVDOID:5727
p1872
aVDOID:5726
p1873
aVDOID:3201
p1874
aVDOID:7479
p1875
aVDOID:4749
p1876
aVDOID:10816
p1877
aVDOID:4743
p1878
aVDOID:8663
p1879
aVDOID:4413
p1880
aVDOID:4415
p1881
aVDOID:14174
p1882
aVDOID:3068
p1883
aVDOID:3772
p1884
aVDOID:3773
p1885
aVDOID:3774
p1886
aVDOID:4547
p1887
aVDOID:8660
p1888
aVDOID:4545
p1889
aVDOID:12064
p1890
aVDOID:7007
p1891
aVDOID:4524
p1892
aVDOID:4525
p1893
aVDOID:4527
p1894
aVDOID:4520
p1895
aVDOID:4521
p1896
aVDOID:4522
p1897
aVDOID:3809
p1898
aVDOID:3559
p1899
aVDOID:2174
p1900
aVDOID:12191
p1901
aVDOID:903
p1902
aVDOID:901
p1903
aVDOID:3151
p1904
aVDOID:8427
p1905
aVDOID:8420
p1906
aVDOID:10744
p1907
aVDOID:2609
p1908
aVDOID:13996
p1909
aVDOID:6379
p1910
aVDOID:8303
p1911
aVDOID:2600
p1912
aVDOID:7077
p1913
aVDOID:7076
p1914
aVDOID:7071
p1915
aVDOID:8083
p1916
aVDOID:8082
p1917
aVDOID:7079
p1918
aVDOID:6386
p1919
aVDOID:6383
p1920
aVDOID:7707
p1921
aVDOID:6381
p1922
aVDOID:7708
p1923
aVDOID:6256
p1924
aVDOID:7389
p1925
aVDOID:7388
p1926
aVDOID:0001816
p1927
aVDOID:0060122
p1928
aVDOID:7381
p1929
aVDOID:8557
p1930
aVDOID:8556
p1931
aVDOID:8883
p1932
aVDOID:8552
p1933
aVDOID:7675
p1934
aVDOID:7676
p1935
aVDOID:1201
p1936
aVDOID:6812
p1937
aVDOID:6811
p1938
aVDOID:7817
p1939
aVDOID:7819
p1940
aVDOID:7818
p1941
aVDOID:116
p1942
aVDOID:117
p1943
aVDOID:119
p1944
aVDOID:6658
p1945
aVDOID:6659
p1946
aVDOID:7492
p1947
aVDOID:7497
p1948
aVDOID:6654
p1949
aVDOID:6657
p1950
aVDOID:6721
p1951
aVDOID:6723
p1952
aVDOID:6726
p1953
aVDOID:6727
p1954
aVDOID:1380
p1955
aVDOID:7928
p1956
aVDOID:7927
p1957
aVDOID:7926
p1958
aVDOID:8133
p1959
aVDOID:4303
p1960
aVDOID:1703
p1961
aVDOID:6039
p1962
aVDOID:6034
p1963
aVDOID:4304
p1964
aVDOID:6037
p1965
aVDOID:6032
p1966
aVDOID:6033
p1967
aVDOID:5602
p1968
aVDOID:5603
p1969
aVDOID:5600
p1970
aVDOID:5604
p1971
aVDOID:5605
p1972
aVDOID:0060901
p1973
aVDOID:12276
p1974
aVDOID:5288
p1975
aVDOID:5289
p1976
aVDOID:5286
p1977
aVDOID:5287
p1978
aVDOID:5936
p1979
aVDOID:5285
p1980
aVDOID:0080202
p1981
aVDOID:5283
p1982
aVDOID:5280
p1983
aVDOID:338
p1984
aVDOID:8369
p1985
aVDOID:5118
p1986
aVDOID:5117
p1987
aVDOID:1140
p1988
aVDOID:9459
p1989
aVDOID:337
p1990
aVDOID:11809
p1991
aVDOID:4645
p1992
aVDOID:7134
p1993
aVDOID:4647
p1994
aVDOID:4648
p1995
aVDOID:3948
p1996
aVDOID:8361
p1997
aVDOID:8208
p1998
aVDOID:0050626
p1999
aVDOID:4739
p2000
aVDOID:0050620
p2001
aVDOID:4880
p2002
aVDOID:4465
p2003
aVDOID:4464
p2004
aVDOID:4467
p2005
aVDOID:3709
p2006
aVDOID:4463
p2007
aVDOID:3704
p2008
aVDOID:3707
p2009
aVDOID:3706
p2010
aVDOID:3701
p2011
aVDOID:4468
p2012
aVDOID:3703
p2013
aVDOID:3702
p2014
aVDOID:10534
p2015
aVDOID:10536
p2016
aVDOID:1963
p2017
aVDOID:10538
p2018
aVDOID:5421
p2019
aVDOID:1967
p2020
aVDOID:5427
p2021
aVDOID:1965
p2022
aVDOID:1964
p2023
aVDOID:12298
p2024
aVDOID:4087
p2025
aVDOID:4086
p2026
aVDOID:4085
p2027
aVDOID:4084
p2028
aVDOID:2706
p2029
aVDOID:11593
p2030
aVDOID:0080305
p2031
aVDOID:0080304
p2032
aVDOID:0080306
p2033
aVDOID:0080303
p2034
aVDOID:3011
p2035
aVDOID:3017
p2036
aVDOID:3016
p2037
aVDOID:4061
p2038
aVDOID:4060
p2039
aVDOID:4062
p2040
aVDOID:4065
p2041
aVDOID:4064
p2042
aVDOID:4067
p2043
aVDOID:4066
p2044
aVDOID:13538
p2045
aVDOID:3499
p2046
aVDOID:3498
p2047
aVDOID:3495
p2048
aVDOID:3494
p2049
aVDOID:3497
p2050
aVDOID:3493
p2051
atp2052
Rp2053
s.